; Function Attrs: nounwind uwtable
define range(i32 -9999, 1) i32 @SUNProfiler_Begin(ptr noundef readonly captures(address_is_null) %0, ptr noundef %1) local_unnamed_addr #0 {
  %3 = alloca ptr, align 8
  call void @llvm.lifetime.start.p0(i64 8, ptr nonnull %3) #18
  store ptr null, ptr %3, align 8, !tbaa !29
  %.not = icmp eq ptr %0, null
  br i1 %.not, label %85, label %4

4:                                                ; preds = %2
  %5 = getelementptr inbounds nuw i8, ptr %0, i64 24
  %6 = load ptr, ptr %5, align 8, !tbaa !14
  %.val15 = load ptr, ptr %6, align 8, !tbaa !8
  %7 = tail call i32 @clock_gettime(i32 noundef 1, ptr noundef %.val15) #18
  %8 = getelementptr inbounds nuw i8, ptr %0, i64 16
  %9 = load ptr, ptr %8, align 8, !tbaa !30
  %10 = call i32 @SUNHashMap_GetValue(ptr noundef %9, ptr noundef %1, ptr noundef nonnull %3) #18
  %.not13 = icmp eq i32 %10, 0
  br i1 %.not13, label %54, label %11

11:                                               ; preds = %4
  %12 = call noalias dereferenceable_or_null(48) ptr @malloc(i64 noundef 48) #17
  %calloc.i = call dereferenceable_or_null(16) ptr @calloc(i64 1, i64 16)
  store ptr %calloc.i, ptr %12, align 8, !tbaa !8
  %13 = call noalias dereferenceable_or_null(16) ptr @malloc(i64 noundef 16) #17
  %14 = getelementptr inbounds nuw i8, ptr %12, i64 8
  store ptr %13, ptr %14, align 8, !tbaa !13
  %15 = getelementptr inbounds nuw i8, ptr %12, i64 16
  call void @llvm.memset.p0.i64(ptr noundef nonnull align 8 dereferenceable(32) %15, i8 0, i64 32, i1 false)
  store ptr %12, ptr %3, align 8, !tbaa !29
  %16 = load ptr, ptr %8, align 8, !tbaa !30
  %17 = call i32 @SUNHashMap_Insert(ptr noundef %16, ptr noundef %1, ptr noundef nonnull %12) #18
  %.not14 = icmp eq i32 %17, 0
  br i1 %.not14, label %54, label %18

18:                                               ; preds = %11
  %19 = load ptr, ptr %3, align 8, !tbaa !29
  %.not.i = icmp eq ptr %19, null
  br i1 %.not.i, label %sunTimerStructFree.exit, label %20

20:                                               ; preds = %18
  %21 = load ptr, ptr %19, align 8, !tbaa !8
  %.not9.i = icmp eq ptr %21, null
  br i1 %.not9.i, label %23, label %22

22:                                               ; preds = %20
  call void @free(ptr noundef nonnull %21) #18
  br label %23

23:                                               ; preds = %22, %20
  %24 = getelementptr inbounds nuw i8, ptr %19, i64 8
  %25 = load ptr, ptr %24, align 8, !tbaa !13
  %.not10.i = icmp eq ptr %25, null
  br i1 %.not10.i, label %27, label %26

26:                                               ; preds = %23
  call void @free(ptr noundef nonnull %25) #18
  br label %27

27:                                               ; preds = %26, %23
  call void @free(ptr noundef nonnull %19) #18
  br label %sunTimerStructFree.exit

sunTimerStructFree.exit:                          ; preds = %18, %27
  %28 = load ptr, ptr %5, align 8, !tbaa !14
  %29 = getelementptr inbounds nuw i8, ptr %28, i64 8
  %30 = load ptr, ptr %29, align 8, !tbaa !13
  %31 = call i32 @clock_gettime(i32 noundef 1, ptr noundef %30) #18
  %32 = load ptr, ptr %29, align 8, !tbaa !13
  %33 = load i64, ptr %32, align 8, !tbaa !23
  %34 = load ptr, ptr %28, align 8, !tbaa !8
  %35 = load i64, ptr %34, align 8, !tbaa !23
  %36 = sub i64 %33, %35
  %37 = getelementptr inbounds nuw i8, ptr %32, i64 8
  %38 = load i64, ptr %37, align 8, !tbaa !25
  %39 = getelementptr inbounds nuw i8, ptr %34, i64 8
  %40 = load i64, ptr %39, align 8, !tbaa !25
  %41 = sub nsw i64 %38, %40
  %42 = icmp slt i64 %41, 0
  %43 = add nsw i64 %38, 1000000000
  %44 = sub i64 %43, %40
  %.lobit.i = ashr i64 %41, 63
  %.015.i = add nsw i64 %36, %.lobit.i
  %.0.i = select i1 %42, i64 %44, i64 %41
  %45 = sitofp i64 %.015.i to double
  %46 = sitofp i64 %.0.i to double
  %47 = call double @llvm.fmuladd.f64(double %46, double 1.000000e-09, double %45)
  %48 = getelementptr inbounds nuw i8, ptr %28, i64 32
  %49 = load double, ptr %48, align 8, !tbaa !26
  %50 = fadd double %49, %47
  store double %50, ptr %48, align 8, !tbaa !26
  %51 = getelementptr inbounds nuw i8, ptr %28, i64 16
  store double %50, ptr %51, align 8, !tbaa !27
  %52 = getelementptr inbounds nuw i8, ptr %28, i64 24
  store double %50, ptr %52, align 8, !tbaa !28
  switch i32 %17, label %54 [
    i32 -1, label %85
    i32 -2, label %53
  ]

53:                                               ; preds = %sunTimerStructFree.exit
  br label %85

54:                                               ; preds = %sunTimerStructFree.exit, %11, %4
  %55 = load ptr, ptr %3, align 8, !tbaa !29
  %56 = getelementptr inbounds nuw i8, ptr %55, i64 40
  %57 = load i64, ptr %56, align 8, !tbaa !31
  %58 = add nsw i64 %57, 1
  store i64 %58, ptr %56, align 8, !tbaa !31
  %.val = load ptr, ptr %55, align 8, !tbaa !8
  %59 = call i32 @clock_gettime(i32 noundef 1, ptr noundef %.val) #18
  %60 = load ptr, ptr %5, align 8, !tbaa !14
  %61 = getelementptr inbounds nuw i8, ptr %60, i64 8
  %62 = load ptr, ptr %61, align 8, !tbaa !13
  %63 = call i32 @clock_gettime(i32 noundef 1, ptr noundef %62) #18
  %64 = load ptr, ptr %61, align 8, !tbaa !13
  %65 = load i64, ptr %64, align 8, !tbaa !23
  %66 = load ptr, ptr %60, align 8, !tbaa !8
  %67 = load i64, ptr %66, align 8, !tbaa !23
  %68 = sub i64 %65, %67
  %69 = getelementptr inbounds nuw i8, ptr %64, i64 8
  %70 = load i64, ptr %69, align 8, !tbaa !25
  %71 = getelementptr inbounds nuw i8, ptr %66, i64 8
  %72 = load i64, ptr %71, align 8, !tbaa !25
  %73 = sub nsw i64 %70, %72
  %74 = icmp slt i64 %73, 0
  %75 = add nsw i64 %70, 1000000000
  %76 = sub i64 %75, %72
  %.lobit.i16 = ashr i64 %73, 63
  %.015.i17 = add nsw i64 %68, %.lobit.i16
  %.0.i18 = select i1 %74, i64 %76, i64 %73
  %77 = sitofp i64 %.015.i17 to double
  %78 = sitofp i64 %.0.i18 to double
  %79 = call double @llvm.fmuladd.f64(double %78, double 1.000000e-09, double %77)
  %80 = getelementptr inbounds nuw i8, ptr %60, i64 32
  %81 = load double, ptr %80, align 8, !tbaa !26
  %82 = fadd double %81, %79
  store double %82, ptr %80, align 8, !tbaa !26
  %83 = getelementptr inbounds nuw i8, ptr %60, i64 16
  store double %82, ptr %83, align 8, !tbaa !27
  %84 = getelementptr inbounds nuw i8, ptr %60, i64 24
  store double %82, ptr %84, align 8, !tbaa !28
  br label %85

85:                                               ; preds = %sunTimerStructFree.exit, %2, %54, %53
  %.0 = phi i32 [ -9983, %53 ], [ 0, %54 ], [ -9999, %2 ], [ -9981, %sunTimerStructFree.exit ]
  call void @llvm.lifetime.end.p0(i64 8, ptr nonnull %3) #18
  ret i32 %.0
}